target datalayout = "e-m:e-p270:32:32-p271:32:32-p272:64:64-i64:64-i128:128-f80:128-n8:16:32:64-S128"
target triple = "x86_64-pc-linux-gnu"

%struct.SDL_WindowData = type { ptr, ptr, ptr, ptr, ptr, ptr, ptr, %union.anon, i32, i32, i32, i32, ptr, ptr, ptr, ptr, ptr, ptr, ptr, ptr, ptr, ptr, ptr, ptr, ptr, ptr, %struct.SDL_AtomicInt, ptr, i32, ptr, double, ptr, i32, i32, i32, i32, %struct.anon.3, %struct.anon.4, %struct.anon.5, %struct.anon.6, %struct.anon.7, %struct.anon.8, %struct.anon.9, i32, i32, i32, i64, i32, i32, i8, i8, i8, i8, i8, i8, i8, i8, i8, i8, i8, i8, i8, i8, i32, %struct.wl_list }
%union.anon = type { %struct.anon }
%struct.anon = type { ptr, %union.anon.0, i8 }
%union.anon.0 = type { %struct.anon.2 }
%struct.anon.2 = type { ptr, ptr }
%struct.SDL_AtomicInt = type { i32 }
%struct.anon.3 = type { double, double }
%struct.anon.4 = type { i32, i32, i32, i32 }
%struct.anon.5 = type { i32, i32, i32, i32 }
%struct.anon.6 = type { i32, i32 }
%struct.anon.7 = type { i32, i32 }
%struct.anon.8 = type { i32, i32 }
%struct.anon.9 = type { i32, i32, i8 }
%struct.wl_list = type { ptr, ptr }
%struct.SDL_VideoData = type { i8, ptr, i32, ptr, ptr, ptr, ptr, i32, %struct.anon.12, ptr, ptr, ptr, ptr, ptr, ptr, ptr, ptr, ptr, ptr, ptr, ptr, ptr, ptr, ptr, ptr, ptr, ptr, ptr, ptr, ptr, ptr, %struct.wl_list, ptr, ptr, ptr, ptr, i32, i32, i8, i8 }
%struct.anon.12 = type { ptr }

@WAYLAND_wl_proxy_get_version = external global ptr, align 8
@WAYLAND_wl_proxy_marshal_flags = external global ptr, align 8
@WAYLAND_wl_region_interface = external global ptr, align 8

; Function Attrs: inlinehint nounwind uwtable
define internal void @wl_region_destroy(ptr noundef %0) #4 {
  %2 = alloca ptr, align 8
  store ptr %0, ptr %2, align 8
  %3 = load ptr, ptr @WAYLAND_wl_proxy_marshal_flags, align 8
  %4 = load ptr, ptr %2, align 8
  %5 = load ptr, ptr @WAYLAND_wl_proxy_get_version, align 8
  %6 = load ptr, ptr %2, align 8
  %7 = call i32 %5(ptr noundef %6)
  %8 = call ptr (ptr, i32, ptr, i32, i32, ...) %3(ptr noundef %4, i32 noundef 0, ptr noundef null, i32 noundef %7, i32 noundef 1)
  ret void
}

; Function Attrs: inlinehint nounwind uwtable
define internal void @wl_surface_set_opaque_region(ptr noundef %0, ptr noundef %1) #4 {
  %3 = alloca ptr, align 8
  %4 = alloca ptr, align 8
  store ptr %0, ptr %3, align 8
  store ptr %1, ptr %4, align 8
  %5 = load ptr, ptr @WAYLAND_wl_proxy_marshal_flags, align 8
  %6 = load ptr, ptr %3, align 8
  %7 = load ptr, ptr @WAYLAND_wl_proxy_get_version, align 8
  %8 = load ptr, ptr %3, align 8
  %9 = call i32 %7(ptr noundef %8)
  %10 = load ptr, ptr %4, align 8
  %11 = call ptr (ptr, i32, ptr, i32, i32, ...) %5(ptr noundef %6, i32 noundef 4, ptr noundef null, i32 noundef %9, i32 noundef 0, ptr noundef %10)
  ret void
}

; Function Attrs: inlinehint nounwind uwtable
define internal void @wl_region_add(ptr noundef %0, i32 noundef %1, i32 noundef %2, i32 noundef %3, i32 noundef %4) #4 {
  %6 = alloca ptr, align 8
  %7 = alloca i32, align 4
  %8 = alloca i32, align 4
  %9 = alloca i32, align 4
  %10 = alloca i32, align 4
  store ptr %0, ptr %6, align 8
  store i32 %1, ptr %7, align 4
  store i32 %2, ptr %8, align 4
  store i32 %3, ptr %9, align 4
  store i32 %4, ptr %10, align 4
  %11 = load ptr, ptr @WAYLAND_wl_proxy_marshal_flags, align 8
  %12 = load ptr, ptr %6, align 8
  %13 = load ptr, ptr @WAYLAND_wl_proxy_get_version, align 8
  %14 = load ptr, ptr %6, align 8
  %15 = call i32 %13(ptr noundef %14)
  %16 = load i32, ptr %7, align 4
  %17 = load i32, ptr %8, align 4
  %18 = load i32, ptr %9, align 4
  %19 = load i32, ptr %10, align 4
  %20 = call ptr (ptr, i32, ptr, i32, i32, ...) %11(ptr noundef %12, i32 noundef 1, ptr noundef null, i32 noundef %15, i32 noundef 0, i32 noundef %16, i32 noundef %17, i32 noundef %18, i32 noundef %19)
  ret void
}

; Function Attrs: inlinehint nounwind uwtable
define internal ptr @wl_compositor_create_region(ptr noundef %0) #4 {
  %2 = alloca ptr, align 8
  %3 = alloca ptr, align 8
  store ptr %0, ptr %2, align 8
  call void @llvm.lifetime.start.p0(i64 8, ptr %3) #10
  %4 = load ptr, ptr @WAYLAND_wl_proxy_marshal_flags, align 8
  %5 = load ptr, ptr %2, align 8
  %6 = load ptr, ptr @WAYLAND_wl_region_interface, align 8
  %7 = load ptr, ptr @WAYLAND_wl_proxy_get_version, align 8
  %8 = load ptr, ptr %2, align 8
  %9 = call i32 %7(ptr noundef %8)
  %10 = call ptr (ptr, i32, ptr, i32, i32, ...) %4(ptr noundef %5, i32 noundef 1, ptr noundef %6, i32 noundef %9, i32 noundef 0, ptr noundef null)
  store ptr %10, ptr %3, align 8
  %11 = load ptr, ptr %3, align 8
  call void @llvm.lifetime.end.p0(i64 8, ptr %3) #10
  ret ptr %11
}

; Function Attrs: nounwind uwtable
define internal void @SetSurfaceOpaqueRegion(ptr noundef %0, i1 noundef zeroext %1) #0 {
  %3 = alloca ptr, align 8
  %4 = alloca i8, align 1
  %5 = alloca ptr, align 8
  %6 = alloca ptr, align 8
  store ptr %0, ptr %3, align 8
  %7 = zext i1 %1 to i8
  store i8 %7, ptr %4, align 1
  call void @llvm.lifetime.start.p0(i64 8, ptr %5) #10
  %8 = load ptr, ptr %3, align 8
  %9 = getelementptr inbounds nuw %struct.SDL_WindowData, ptr %8, i32 0, i32 1
  %10 = load ptr, ptr %9, align 8
  store ptr %10, ptr %5, align 8
  %11 = load i8, ptr %4, align 1, !range !5, !noundef !6
  %12 = trunc i8 %11 to i1
  br i1 %12, label %13, label %32

13:                                               ; preds = %2
  call void @llvm.lifetime.start.p0(i64 8, ptr %6) #10
  %14 = load ptr, ptr %5, align 8
  %15 = getelementptr inbounds nuw %struct.SDL_VideoData, ptr %14, i32 0, i32 4
  %16 = load ptr, ptr %15, align 8
  %17 = call ptr @wl_compositor_create_region(ptr noundef %16)
  store ptr %17, ptr %6, align 8
  %18 = load ptr, ptr %6, align 8
  %19 = load ptr, ptr %3, align 8
  %20 = getelementptr inbounds nuw %struct.SDL_WindowData, ptr %19, i32 0, i32 38
  %21 = getelementptr inbounds nuw %struct.anon.5, ptr %20, i32 0, i32 0
  %22 = load i32, ptr %21, align 8
  %23 = load ptr, ptr %3, align 8
  %24 = getelementptr inbounds nuw %struct.SDL_WindowData, ptr %23, i32 0, i32 38
  %25 = getelementptr inbounds nuw %struct.anon.5, ptr %24, i32 0, i32 1
  %26 = load i32, ptr %25, align 4
  call void @wl_region_add(ptr noundef %18, i32 noundef 0, i32 noundef 0, i32 noundef %22, i32 noundef %26)
  %27 = load ptr, ptr %3, align 8
  %28 = getelementptr inbounds nuw %struct.SDL_WindowData, ptr %27, i32 0, i32 2
  %29 = load ptr, ptr %28, align 8
  %30 = load ptr, ptr %6, align 8
  call void @wl_surface_set_opaque_region(ptr noundef %29, ptr noundef %30)
  %31 = load ptr, ptr %6, align 8
  call void @wl_region_destroy(ptr noundef %31)
  call void @llvm.lifetime.end.p0(i64 8, ptr %6) #10
  br label %36

32:                                               ; preds = %2
  %33 = load ptr, ptr %3, align 8
  %34 = getelementptr inbounds nuw %struct.SDL_WindowData, ptr %33, i32 0, i32 2
  %35 = load ptr, ptr %34, align 8
  call void @wl_surface_set_opaque_region(ptr noundef %35, ptr noundef null)
  br label %36

36:                                               ; preds = %32, %13
  call void @llvm.lifetime.end.p0(i64 8, ptr %5) #10
  ret void
}