; Function Attrs: nounwind uwtable
define internal fastcc void @SetSurfaceOpaqueRegion(ptr noundef readonly captures(none) %0, i1 noundef zeroext %1) unnamed_addr #0 {
  br i1 %1, label %3, label %31

3:                                                ; preds = %2
  %4 = getelementptr inbounds nuw i8, ptr %0, i64 8
  %5 = load ptr, ptr %4, align 8
  %6 = getelementptr inbounds nuw i8, ptr %5, i64 32
  %7 = load ptr, ptr %6, align 8
  %8 = load ptr, ptr @WAYLAND_wl_proxy_marshal_flags, align 8
  %9 = load ptr, ptr @WAYLAND_wl_region_interface, align 8
  %10 = load ptr, ptr @WAYLAND_wl_proxy_get_version, align 8
  %11 = tail call i32 %10(ptr noundef %7) #15
  %12 = tail call ptr (ptr, i32, ptr, i32, i32, ...) %8(ptr noundef %7, i32 noundef 1, ptr noundef %9, i32 noundef %11, i32 noundef 0, ptr noundef null) #15
  %13 = getelementptr inbounds nuw i8, ptr %0, i64 312
  %14 = load i32, ptr %13, align 8
  %15 = getelementptr inbounds nuw i8, ptr %0, i64 316
  %16 = load i32, ptr %15, align 4
  %17 = load ptr, ptr @WAYLAND_wl_proxy_marshal_flags, align 8
  %18 = load ptr, ptr @WAYLAND_wl_proxy_get_version, align 8
  %19 = tail call i32 %18(ptr noundef %12) #15
  %20 = tail call ptr (ptr, i32, ptr, i32, i32, ...) %17(ptr noundef %12, i32 noundef 1, ptr noundef null, i32 noundef %19, i32 noundef 0, i32 noundef 0, i32 noundef 0, i32 noundef %14, i32 noundef %16) #15
  %21 = getelementptr inbounds nuw i8, ptr %0, i64 16
  %22 = load ptr, ptr %21, align 8
  %23 = load ptr, ptr @WAYLAND_wl_proxy_marshal_flags, align 8
  %24 = load ptr, ptr @WAYLAND_wl_proxy_get_version, align 8
  %25 = tail call i32 %24(ptr noundef %22) #15
  %26 = tail call ptr (ptr, i32, ptr, i32, i32, ...) %23(ptr noundef %22, i32 noundef 4, ptr noundef null, i32 noundef %25, i32 noundef 0, ptr noundef %12) #15
  %27 = load ptr, ptr @WAYLAND_wl_proxy_marshal_flags, align 8
  %28 = load ptr, ptr @WAYLAND_wl_proxy_get_version, align 8
  %29 = tail call i32 %28(ptr noundef %12) #15
  %30 = tail call ptr (ptr, i32, ptr, i32, i32, ...) %27(ptr noundef %12, i32 noundef 0, ptr noundef null, i32 noundef %29, i32 noundef 1) #15
  br label %38

31:                                               ; preds = %2
  %32 = getelementptr inbounds nuw i8, ptr %0, i64 16
  %33 = load ptr, ptr %32, align 8
  %34 = load ptr, ptr @WAYLAND_wl_proxy_marshal_flags, align 8
  %35 = load ptr, ptr @WAYLAND_wl_proxy_get_version, align 8
  %36 = tail call i32 %35(ptr noundef %33) #15
  %37 = tail call ptr (ptr, i32, ptr, i32, i32, ...) %34(ptr noundef %33, i32 noundef 4, ptr noundef null, i32 noundef %36, i32 noundef 0, ptr noundef null) #15
  br label %38

38:                                               ; preds = %31, %3
  ret void
}